target datalayout = "e-m:e-p270:32:32-p271:32:32-p272:64:64-i64:64-i128:128-f80:128-n8:16:32:64-S128"
target triple = "x86_64-pc-linux-gnu"

%struct.decoration = type { ptr, i32, i32, ptr }
%struct.strbuf = type { i64, i64, ptr }
%struct.string_list = type { ptr, i64, i64, i8, ptr }
%struct.rev_info = type { ptr, %struct.object_array, ptr, %struct.object_array, %struct.rev_cmdline_info, %struct.list_objects_filter_options, %struct.ref_exclusions, ptr, ptr, ptr, %struct.pathspec, i32, i32, i32, i32, i64, i32, i32, %struct.date_mode, i32, i32, i32, i32, ptr, i32, i32, ptr, ptr, i32, ptr, ptr, %struct.ident_split, ptr, i32, ptr, ptr, ptr, i32, i32, i32, ptr, %struct.grep_opt, ptr, i32, i32, i64, i64, i64, i32, i32, ptr, ptr, ptr, %struct.diff_options, %struct.diff_options, ptr, %struct.decoration, %struct.decoration, %struct.decoration, %struct.display_notes_opt, ptr, ptr, ptr, ptr, ptr, i32, ptr, i32, i32, i32, %struct.decoration, ptr, ptr, ptr, ptr, ptr, ptr, ptr, i32, ptr, i32, ptr, %struct.oidset }
%struct.object_array = type { i32, i32, ptr }
%struct.rev_cmdline_info = type { i32, i32, ptr }
%struct.list_objects_filter_options = type { %struct.strbuf, i32, i8, ptr, i64, i64, i32, i64, i64, ptr }
%struct.ref_exclusions = type { %struct.string_list, %struct.strvec, i8 }
%struct.strvec = type { ptr, i64, i64 }
%struct.pathspec = type { i32, i8, i32, i32, ptr }
%struct.date_mode = type { i32, i32, ptr }
%struct.ident_split = type { ptr, ptr, ptr, ptr, ptr, ptr, ptr, ptr }
%struct.grep_opt = type { ptr, ptr, ptr, ptr, ptr, ptr, i32, i32, i32, i32, i32, i32, i32, i32, i32, i32, i32, i32, i32, i32, i32, i32, i32, i32, i32, i32, i32, i32, i32, i32, i32, i32, [9 x [75 x i8]], i32, i32, i32, i32, i32, i32, i32, ptr, ptr, ptr }
%struct.diff_options = type { ptr, ptr, i32, i32, ptr, i32, ptr, i64, i64, ptr, ptr, ptr, ptr, %struct.diff_flags, i32, i32, i32, i32, i32, i32, i32, i32, i32, i32, i32, i32, i32, i32, i32, i32, i32, i32, i32, i32, i32, i32, ptr, i32, ptr, i32, i32, ptr, i64, i64, i32, i32, i32, i32, ptr, i32, i32, ptr, i32, i32, ptr, ptr, i32, [3 x i8], %struct.pathspec, ptr, ptr, ptr, ptr, ptr, ptr, ptr, ptr, i32, ptr, i32, i32, ptr, ptr, i32 }
%struct.diff_flags = type { i32, i32, i32, i32, i32, i32, i32, i32, i32, i32, i32, i32, i32, i32, i32, i32, i32, i32, i32, i32, i32, i32, i32, i32, i32, i32, i32, i32, i32, i32, i32, i32, i32, i32, i32 }
%struct.display_notes_opt = type { i32, %struct.string_list }
%struct.oidset = type { %struct.kh_oid_set }
%struct.kh_oid_set = type { i32, i32, i32, i32, ptr, ptr, ptr }

@__const.show_decorations.sb = private unnamed_addr constant %struct.strbuf { i64 0, i64 0, ptr @strbuf_slopbuf }, align 8
@.str.6 = private unnamed_addr constant [4 x i8] c"\09%s\00", align 1

; Function Attrs: nounwind uwtable
define dso_local void @show_decorations(ptr noundef %0, ptr noundef %1) #0 {
  %3 = alloca ptr, align 8
  %4 = alloca ptr, align 8
  %5 = alloca %struct.strbuf, align 8
  %6 = alloca ptr, align 8
  %7 = alloca i32, align 4
  store ptr %0, ptr %3, align 8, !tbaa !71
  store ptr %1, ptr %4, align 8, !tbaa !55
  call void @llvm.lifetime.start.p0(i64 24, ptr %5) #10
  call void @llvm.memcpy.p0.p0.i64(ptr align 8 %5, ptr align 8 @__const.show_decorations.sb, i64 24, i1 false)
  %8 = load ptr, ptr %3, align 8, !tbaa !71
  %9 = getelementptr inbounds nuw %struct.rev_info, ptr %8, i32 0, i32 75
  %10 = load ptr, ptr %9, align 8, !tbaa !73
  %11 = icmp ne ptr %10, null
  br i1 %11, label %12, label %33

12:                                               ; preds = %2
  call void @llvm.lifetime.start.p0(i64 8, ptr %6) #10
  %13 = load ptr, ptr %3, align 8, !tbaa !71
  %14 = getelementptr inbounds nuw %struct.rev_info, ptr %13, i32 0, i32 75
  %15 = load ptr, ptr %14, align 8, !tbaa !73
  %16 = load ptr, ptr %4, align 8, !tbaa !55
  %17 = call ptr @revision_sources_peek(ptr noundef %15, ptr noundef %16)
  store ptr %17, ptr %6, align 8, !tbaa !116
  %18 = load ptr, ptr %6, align 8, !tbaa !116
  %19 = icmp ne ptr %18, null
  br i1 %19, label %20, label %32

20:                                               ; preds = %12
  %21 = load ptr, ptr %6, align 8, !tbaa !116
  %22 = load ptr, ptr %21, align 8, !tbaa !9
  %23 = icmp ne ptr %22, null
  br i1 %23, label %24, label %32

24:                                               ; preds = %20
  %25 = load ptr, ptr %3, align 8, !tbaa !71
  %26 = getelementptr inbounds nuw %struct.rev_info, ptr %25, i32 0, i32 53
  %27 = getelementptr inbounds nuw %struct.diff_options, ptr %26, i32 0, i32 55
  %28 = load ptr, ptr %27, align 8, !tbaa !117
  %29 = load ptr, ptr %6, align 8, !tbaa !116
  %30 = load ptr, ptr %29, align 8, !tbaa !9
  %31 = call i32 (ptr, ptr, ...) @fprintf(ptr noundef %28, ptr noundef @.str.6, ptr noundef %30) #10
  br label %32

32:                                               ; preds = %24, %20, %12
  call void @llvm.lifetime.end.p0(i64 8, ptr %6) #10
  br label %33

33:                                               ; preds = %32, %2
  %34 = load ptr, ptr %3, align 8, !tbaa !71
  %35 = getelementptr inbounds nuw %struct.rev_info, ptr %34, i32 0, i32 15
  %36 = load i64, ptr %35, align 8
  %37 = lshr i64 %36, 30
  %38 = and i64 %37, 1
  %39 = trunc i64 %38 to i32
  %40 = icmp ne i32 %39, 0
  br i1 %40, label %42, label %41

41:                                               ; preds = %33
  store i32 1, ptr %7, align 4
  br label %55

42:                                               ; preds = %33
  %43 = load ptr, ptr %4, align 8, !tbaa !55
  %44 = load ptr, ptr %3, align 8, !tbaa !71
  %45 = getelementptr inbounds nuw %struct.rev_info, ptr %44, i32 0, i32 53
  %46 = getelementptr inbounds nuw %struct.diff_options, ptr %45, i32 0, i32 16
  %47 = load i32, ptr %46, align 4, !tbaa !118
  call void @format_decorations(ptr noundef %5, ptr noundef %43, i32 noundef %47, ptr noundef null)
  %48 = getelementptr inbounds nuw %struct.strbuf, ptr %5, i32 0, i32 2
  %49 = load ptr, ptr %48, align 8, !tbaa !119
  %50 = load ptr, ptr %3, align 8, !tbaa !71
  %51 = getelementptr inbounds nuw %struct.rev_info, ptr %50, i32 0, i32 53
  %52 = getelementptr inbounds nuw %struct.diff_options, ptr %51, i32 0, i32 55
  %53 = load ptr, ptr %52, align 8, !tbaa !117
  %54 = call i32 @fputs(ptr noundef %49, ptr noundef %53)
  call void @strbuf_release(ptr noundef %5)
  store i32 0, ptr %7, align 4
  br label %55

55:                                               ; preds = %42, %41
  call void @llvm.lifetime.end.p0(i64 24, ptr %5) #10
  %56 = load i32, ptr %7, align 4
  switch i32 %56, label %58 [
    i32 0, label %57
    i32 1, label %57
  ]

57:                                               ; preds = %55, %55
  ret void

58:                                               ; preds = %55
  unreachable
}