; Function Attrs: nounwind uwtable
define dso_local void @show_decorations(ptr noundef readonly captures(none) %0, ptr noundef %1) local_unnamed_addr #0 {
  %3 = alloca %struct.strbuf, align 8
  call void @llvm.lifetime.start.p0(i64 24, ptr nonnull %3) #15
  call void @llvm.memcpy.p0.p0.i64(ptr noundef nonnull align 8 dereferenceable(24) %3, ptr noundef nonnull align 8 dereferenceable(24) @__const.do_remerge_diff.parent2_desc, i64 24, i1 false)
  %4 = getelementptr inbounds nuw i8, ptr %0, i64 2912
  %5 = load ptr, ptr %4, align 8, !tbaa !51
  %.not = icmp eq ptr %5, null
  br i1 %.not, label %14, label %6

6:                                                ; preds = %2
  %7 = tail call ptr @revision_sources_peek(ptr noundef nonnull %5, ptr noundef %1) #15
  %.not13 = icmp eq ptr %7, null
  br i1 %.not13, label %14, label %8

8:                                                ; preds = %6
  %9 = load ptr, ptr %7, align 8, !tbaa !4
  %.not14 = icmp eq ptr %9, null
  br i1 %.not14, label %14, label %10

10:                                               ; preds = %8
  %11 = getelementptr inbounds nuw i8, ptr %0, i64 1912
  %12 = load ptr, ptr %11, align 8, !tbaa !95
  %13 = tail call i32 (ptr, ptr, ...) @fprintf(ptr noundef %12, ptr noundef nonnull @.str.6, ptr noundef nonnull %9) #15
  br label %14

14:                                               ; preds = %6, %8, %10, %2
  %15 = getelementptr inbounds nuw i8, ptr %0, i64 288
  %16 = load i64, ptr %15, align 8
  %17 = and i64 %16, 1073741824
  %.not15 = icmp eq i64 %17, 0
  br i1 %.not15, label %26, label %18

18:                                               ; preds = %14
  %19 = getelementptr inbounds nuw i8, ptr %0, i64 1716
  %20 = load i32, ptr %19, align 4, !tbaa !96
  call void @format_decorations(ptr noundef nonnull %3, ptr noundef %1, i32 noundef %20, ptr noundef null)
  %21 = getelementptr inbounds nuw i8, ptr %3, i64 16
  %22 = load ptr, ptr %21, align 8, !tbaa !97
  %23 = getelementptr inbounds nuw i8, ptr %0, i64 1912
  %24 = load ptr, ptr %23, align 8, !tbaa !95
  %25 = call i32 @fputs(ptr noundef %22, ptr noundef %24)
  call void @strbuf_release(ptr noundef nonnull %3) #15
  br label %26

26:                                               ; preds = %14, %18
  call void @llvm.lifetime.end.p0(i64 24, ptr nonnull %3) #15
  ret void
}